; Function Attrs: mustprogress nounwind uwtable
define noundef nonnull align 8 dereferenceable(16) ptr @_ZN3gmx11LoggerOwneraSEOS0_(ptr noundef nonnull returned align 8 dereferenceable(16) %0, ptr nocapture noundef nonnull align 8 dereferenceable(16) %1) local_unnamed_addr #0 align 2 {
  %3 = load ptr, ptr %1, align 8
  store ptr null, ptr %1, align 8
  tail call void @_ZNSt15__uniq_ptr_implIN3gmx11LoggerOwner4ImplESt14default_deleteIS2_EE5resetEPS2_(ptr noundef nonnull align 8 dereferenceable(8) %0, ptr noundef %3) #12
  %4 = load ptr, ptr %0, align 8
  %5 = getelementptr inbounds i8, ptr %0, i64 8
  store ptr %4, ptr %5, align 8
  ret ptr %0
}